(dp1
S'z_0.10_0.20_lambdgt_10.0000000000'
p2
F0.72580490148966847
sS'z_0.20_0.30_lambdgt_5.0000000000'
p3
F5.1085055261893322
sS'z_0.20_0.30_lambdgt_100.0000000000'
p4
F0.0039404132628543974
sS'z_0.10_0.20_lambdgt_5.0000000000'
p5
F2.2361364728495916
sS'z_0.10_0.20_lambdgt_100.0000000000'
p6
F0.0014416146083613647
sS'z_0.10_0.20_lambdgt_15.0000000000'
p7
F0.36155694377703029
sS'z_0.20_0.30_lambdgt_15.0000000000'
p8
F0.82642960115329167
sS'z_0.20_0.30_lambdgt_10.0000000000'
p9
F1.7102354637193657
s.